; ModuleID = '25/805.cpp'
source_filename = "25/805.cpp"
target datalayout = "e-m:e-p270:32:32-p271:32:32-p272:64:64-i64:64-f80:128-n8:16:32:64-S128"
target triple = "x86_64-pc-linux-gnu"

%"class.std::ios_base::Init" = type { i8 }
%"class.std::basic_ostream" = type { i32 (...)**, %"class.std::basic_ios" }
%"class.std::basic_ios" = type { %"class.std::ios_base", %"class.std::basic_ostream"*, i8, i8, %"class.std::basic_streambuf"*, %"class.std::ctype"*, %"class.std::num_put"*, %"class.std::num_get"* }
%"class.std::ios_base" = type { i32 (...)**, i64, i64, i32, i32, i32, %"struct.std::ios_base::_Callback_list"*, %"struct.std::ios_base::_Words", [8 x %"struct.std::ios_base::_Words"], i32, %"struct.std::ios_base::_Words"*, %"class.std::locale" }
%"struct.std::ios_base::_Callback_list" = type { %"struct.std::ios_base::_Callback_list"*, void (i32, %"class.std::ios_base"*, i32)*, i32, i32 }
%"struct.std::ios_base::_Words" = type { i8*, i64 }
%"class.std::locale" = type { %"class.std::locale::_Impl"* }
%"class.std::locale::_Impl" = type { i32, %"class.std::locale::facet"**, i64, %"class.std::locale::facet"**, i8** }
%"class.std::locale::facet" = type <{ i32 (...)**, i32, [4 x i8] }>
%"class.std::basic_streambuf" = type { i32 (...)**, i8*, i8*, i8*, i8*, i8*, i8*, %"class.std::locale" }
%"class.std::ctype" = type <{ %"class.std::locale::facet.base", [4 x i8], %struct.__locale_struct*, i8, [7 x i8], i32*, i32*, i16*, i8, [256 x i8], [256 x i8], i8, [6 x i8] }>
%"class.std::locale::facet.base" = type <{ i32 (...)**, i32 }>
%struct.__locale_struct = type { [13 x %struct.__locale_data*], i16*, i32*, i32*, [13 x i8*] }
%struct.__locale_data = type opaque
%"class.std::num_put" = type { %"class.std::locale::facet.base", [4 x i8] }
%"class.std::num_get" = type { %"class.std::locale::facet.base", [4 x i8] }
%"class.std::basic_istream" = type { i32 (...)**, i64, %"class.std::basic_ios" }

@_ZStL8__ioinit = internal global %"class.std::ios_base::Init" zeroinitializer, align 1
@__dso_handle = external hidden global i8
@_ZSt4cout = external dso_local global %"class.std::basic_ostream", align 8
@_ZSt3cin = external dso_local global %"class.std::basic_istream", align 8
@llvm.global_ctors = appending global [1 x { i32, void ()*, i8* }] [{ i32, void ()*, i8* } { i32 65535, void ()* @_GLOBAL__sub_I_805.cpp, i8* null }]

; Function Attrs: noinline uwtable
define internal void @__cxx_global_var_init() #0 section ".text.startup" {
  call void @_ZNSt8ios_base4InitC1Ev(%"class.std::ios_base::Init"* @_ZStL8__ioinit)
  %1 = call i32 @__cxa_atexit(void (i8*)* bitcast (void (%"class.std::ios_base::Init"*)* @_ZNSt8ios_base4InitD1Ev to void (i8*)*), i8* getelementptr inbounds (%"class.std::ios_base::Init", %"class.std::ios_base::Init"* @_ZStL8__ioinit, i32 0, i32 0), i8* @__dso_handle) #3
  ret void
}

declare dso_local void @_ZNSt8ios_base4InitC1Ev(%"class.std::ios_base::Init"*) unnamed_addr #1

; Function Attrs: nounwind
declare dso_local void @_ZNSt8ios_base4InitD1Ev(%"class.std::ios_base::Init"*) unnamed_addr #2

; Function Attrs: nounwind
declare dso_local i32 @__cxa_atexit(void (i8*)*, i8*, i8*) #3

; Function Attrs: noinline uwtable
define dso_local void @_Z6outputPi(i32* %0) #0 {
  %2 = alloca i32*, align 8
  %3 = alloca i32, align 4
  %4 = alloca i32, align 4
  store i32* %0, i32** %2, align 8
  store i32 0, i32* %3, align 4
  br label %5

5:                                                ; preds = %13, %1
  %6 = load i32*, i32** %2, align 8
  %7 = load i32, i32* %3, align 4
  %8 = sext i32 %7 to i64
  %9 = getelementptr inbounds i32, i32* %6, i64 %8
  %10 = load i32, i32* %9, align 4
  %11 = icmp eq i32 %10, 0
  br i1 %11, label %12, label %16

12:                                               ; preds = %5
  br label %13

13:                                               ; preds = %12
  %14 = load i32, i32* %3, align 4
  %15 = add nsw i32 %14, 1
  store i32 %15, i32* %3, align 4
  br label %5

16:                                               ; preds = %5
  %17 = load i32, i32* %3, align 4
  store i32 %17, i32* %4, align 4
  br label %18

18:                                               ; preds = %28, %16
  %19 = load i32, i32* %4, align 4
  %20 = icmp slt i32 %19, 41
  br i1 %20, label %21, label %31

21:                                               ; preds = %18
  %22 = load i32*, i32** %2, align 8
  %23 = load i32, i32* %4, align 4
  %24 = sext i32 %23 to i64
  %25 = getelementptr inbounds i32, i32* %22, i64 %24
  %26 = load i32, i32* %25, align 4
  %27 = call dereferenceable(272) %"class.std::basic_ostream"* @_ZNSolsEi(%"class.std::basic_ostream"* @_ZSt4cout, i32 %26)
  br label %28

28:                                               ; preds = %21
  %29 = load i32, i32* %4, align 4
  %30 = add nsw i32 %29, 1
  store i32 %30, i32* %4, align 4
  br label %18

31:                                               ; preds = %18
  ret void
}

declare dso_local dereferenceable(272) %"class.std::basic_ostream"* @_ZNSolsEi(%"class.std::basic_ostream"*, i32) #1

; Function Attrs: noinline uwtable
define dso_local void @_Z4mutii(i32 %0) #0 {
  %2 = alloca i32, align 4
  %3 = alloca [41 x i32], align 16
  %4 = alloca i32, align 4
  %5 = alloca i32, align 4
  %6 = alloca i32, align 4
  %7 = alloca i32, align 4
  store i32 %0, i32* %2, align 4
  %8 = bitcast [41 x i32]* %3 to i8*
  call void @llvm.memset.p0i8.i64(i8* align 16 %8, i8 0, i64 164, i1 false)
  %9 = getelementptr inbounds [41 x i32], [41 x i32]* %3, i64 0, i64 40
  store i32 1, i32* %9, align 16
  store i32 0, i32* %4, align 4
  br label %10

10:                                               ; preds = %66, %1
  %11 = load i32, i32* %4, align 4
  %12 = load i32, i32* %2, align 4
  %13 = icmp slt i32 %11, %12
  br i1 %13, label %14, label %69

14:                                               ; preds = %10
  store i32 40, i32* %5, align 4
  br label %15

15:                                               ; preds = %27, %14
  %16 = load i32, i32* %5, align 4
  %17 = icmp sgt i32 %16, 0
  br i1 %17, label %18, label %30

18:                                               ; preds = %15
  %19 = load i32, i32* %5, align 4
  %20 = sext i32 %19 to i64
  %21 = getelementptr inbounds [41 x i32], [41 x i32]* %3, i64 0, i64 %20
  %22 = load i32, i32* %21, align 4
  %23 = mul nsw i32 %22, 2
  %24 = load i32, i32* %5, align 4
  %25 = sext i32 %24 to i64
  %26 = getelementptr inbounds [41 x i32], [41 x i32]* %3, i64 0, i64 %25
  store i32 %23, i32* %26, align 4
  br label %27

27:                                               ; preds = %18
  %28 = load i32, i32* %5, align 4
  %29 = add nsw i32 %28, -1
  store i32 %29, i32* %5, align 4
  br label %15

30:                                               ; preds = %15
  store i32 40, i32* %6, align 4
  br label %31

31:                                               ; preds = %62, %30
  %32 = load i32, i32* %6, align 4
  %33 = icmp sgt i32 %32, 0
  br i1 %33, label %34, label %65

34:                                               ; preds = %31
  br label %35

35:                                               ; preds = %41, %34
  %36 = load i32, i32* %6, align 4
  %37 = sext i32 %36 to i64
  %38 = getelementptr inbounds [41 x i32], [41 x i32]* %3, i64 0, i64 %37
  %39 = load i32, i32* %38, align 4
  %40 = icmp sgt i32 %39, 9
  br i1 %40, label %41, label %61

41:                                               ; preds = %35
  %42 = load i32, i32* %6, align 4
  %43 = sext i32 %42 to i64
  %44 = getelementptr inbounds [41 x i32], [41 x i32]* %3, i64 0, i64 %43
  %45 = load i32, i32* %44, align 4
  %46 = sdiv i32 %45, 10
  store i32 %46, i32* %7, align 4
  %47 = load i32, i32* %7, align 4
  %48 = mul nsw i32 10, %47
  %49 = load i32, i32* %6, align 4
  %50 = sext i32 %49 to i64
  %51 = getelementptr inbounds [41 x i32], [41 x i32]* %3, i64 0, i64 %50
  %52 = load i32, i32* %51, align 4
  %53 = sub nsw i32 %52, %48
  store i32 %53, i32* %51, align 4
  %54 = load i32, i32* %7, align 4
  %55 = load i32, i32* %6, align 4
  %56 = sub nsw i32 %55, 1
  %57 = sext i32 %56 to i64
  %58 = getelementptr inbounds [41 x i32], [41 x i32]* %3, i64 0, i64 %57
  %59 = load i32, i32* %58, align 4
  %60 = add nsw i32 %59, %54
  store i32 %60, i32* %58, align 4
  br label %35

61:                                               ; preds = %35
  br label %62

62:                                               ; preds = %61
  %63 = load i32, i32* %6, align 4
  %64 = add nsw i32 %63, -1
  store i32 %64, i32* %6, align 4
  br label %31

65:                                               ; preds = %31
  br label %66

66:                                               ; preds = %65
  %67 = load i32, i32* %4, align 4
  %68 = add nsw i32 %67, 1
  store i32 %68, i32* %4, align 4
  br label %10

69:                                               ; preds = %10
  %70 = getelementptr inbounds [41 x i32], [41 x i32]* %3, i64 0, i64 0
  call void @_Z6outputPi(i32* %70)
  ret void
}

; Function Attrs: argmemonly nounwind willreturn
declare void @llvm.memset.p0i8.i64(i8* nocapture writeonly, i8, i64, i1 immarg) #4

; Function Attrs: noinline norecurse uwtable
define dso_local i32 @main() #5 {
  %1 = alloca i32, align 4
  %2 = alloca i32, align 4
  store i32 0, i32* %1, align 4
  %3 = call dereferenceable(280) %"class.std::basic_istream"* @_ZNSirsERi(%"class.std::basic_istream"* @_ZSt3cin, i32* dereferenceable(4) %2)
  %4 = load i32, i32* %2, align 4
  call void @_Z4mutii(i32 %4)
  ret i32 0
}

declare dso_local dereferenceable(280) %"class.std::basic_istream"* @_ZNSirsERi(%"class.std::basic_istream"*, i32* dereferenceable(4)) #1

; Function Attrs: noinline uwtable
define internal void @_GLOBAL__sub_I_805.cpp() #0 section ".text.startup" {
  call void @__cxx_global_var_init()
  ret void
}


!llvm.module.flags = !{!0}
!llvm.ident = !{!1}

!0 = !{i32 1, !"wchar_size", i32 4}
!1 = !{!"clang version 10.0.0-4ubuntu1 "}
